target datalayout = "e-m:e-p270:32:32-p271:32:32-p272:64:64-i64:64-i128:128-f80:128-n8:16:32:64-S128"
target triple = "x86_64-pc-linux-gnu"

%"class.std::__cxx11::basic_string" = type { %"struct.std::__cxx11::basic_string<char>::_Alloc_hider", i64, %union.anon }
%"struct.std::__cxx11::basic_string<char>::_Alloc_hider" = type { ptr }
%union.anon = type { i64, [8 x i8] }
%"class.std::allocator" = type { i8 }

@.str.31 = private unnamed_addr constant [118 x i8] c"generated/home/dtcxzyw/WorkSpace/Projects/compilers/llvm-opt-benchmark/bench/opencv/opencv/modules/ts/src/ts_func.cpp\00", align 1
@.str.55 = private unnamed_addr constant [23 x i8] c"_src1.depth() == CV_8U\00", align 1
@__func__._ZN6cvtest4PSNRERKN2cv11_InputArrayES3_ = private unnamed_addr constant [5 x i8] c"PSNR\00", align 1

; Function Attrs: mustprogress uwtable
define hidden noundef double @_ZN6cvtest4PSNRERKN2cv11_InputArrayES3_(ptr noundef nonnull align 8 dereferenceable(24) %0, ptr noundef nonnull align 8 dereferenceable(24) %1) #6 personality ptr @__gxx_personality_v0 {
  %3 = alloca ptr, align 8
  %4 = alloca ptr, align 8
  %5 = alloca %"class.std::__cxx11::basic_string", align 8
  %6 = alloca %"class.std::allocator", align 1
  %7 = alloca ptr, align 8
  %8 = alloca i32, align 4
  %9 = alloca double, align 8
  store ptr %0, ptr %3, align 8
  store ptr %1, ptr %4, align 8
  br label %10

10:                                               ; preds = %2
  %11 = load ptr, ptr %3, align 8
  %12 = call noundef i32 @_ZNK2cv11_InputArray5depthEi(ptr noundef nonnull align 8 dereferenceable(24) %11, i32 noundef -1)
  %13 = icmp eq i32 %12, 0
  br i1 %13, label %14, label %15

14:                                               ; preds = %10
  br label %27

15:                                               ; preds = %10
  call void @_ZNSaIcEC1Ev(ptr noundef nonnull align 1 dereferenceable(1) %6) #3
  invoke void @_ZNSt7__cxx1112basic_stringIcSt11char_traitsIcESaIcEEC1EPKcRKS3_(ptr noundef nonnull align 8 dereferenceable(32) %5, ptr noundef @.str.55, ptr noundef nonnull align 1 dereferenceable(1) %6)
          to label %16 unwind label %18

16:                                               ; preds = %15
  invoke void @_ZN2cv5errorEiRKNSt7__cxx1112basic_stringIcSt11char_traitsIcESaIcEEEPKcS9_i(i32 noundef -215, ptr noundef nonnull align 8 dereferenceable(32) %5, ptr noundef @__func__._ZN6cvtest4PSNRERKN2cv11_InputArrayES3_, ptr noundef @.str.31, i32 noundef 1443) #18
          to label %17 unwind label %22

17:                                               ; preds = %16
  unreachable

18:                                               ; preds = %15
  %19 = landingpad { ptr, i32 }
          cleanup
  %20 = extractvalue { ptr, i32 } %19, 0
  store ptr %20, ptr %7, align 8
  %21 = extractvalue { ptr, i32 } %19, 1
  store i32 %21, ptr %8, align 4
  br label %26

22:                                               ; preds = %16
  %23 = landingpad { ptr, i32 }
          cleanup
  %24 = extractvalue { ptr, i32 } %23, 0
  store ptr %24, ptr %7, align 8
  %25 = extractvalue { ptr, i32 } %23, 1
  store i32 %25, ptr %8, align 4
  call void @_ZNSt7__cxx1112basic_stringIcSt11char_traitsIcESaIcEED1Ev(ptr noundef nonnull align 8 dereferenceable(32) %5) #3
  br label %26

26:                                               ; preds = %22, %18
  call void @_ZNSaIcED1Ev(ptr noundef nonnull align 1 dereferenceable(1) %6) #3
  br label %47

27:                                               ; preds = %14
  br label %28

28:                                               ; preds = %27
  %29 = load ptr, ptr %3, align 8
  %30 = load ptr, ptr %4, align 8
  %31 = call noundef nonnull align 8 dereferenceable(24) ptr @_ZN2cv7noArrayEv()
  %32 = call noundef double @_ZN6cvtest4normERKN2cv11_InputArrayES3_iS3_(ptr noundef nonnull align 8 dereferenceable(24) %29, ptr noundef nonnull align 8 dereferenceable(24) %30, i32 noundef 5, ptr noundef nonnull align 8 dereferenceable(24) %31)
  %33 = load ptr, ptr %3, align 8
  %34 = call noundef i64 @_ZNK2cv11_InputArray5totalEi(ptr noundef nonnull align 8 dereferenceable(24) %33, i32 noundef -1)
  %35 = load ptr, ptr %3, align 8
  %36 = call noundef i32 @_ZNK2cv11_InputArray8channelsEi(ptr noundef nonnull align 8 dereferenceable(24) %35, i32 noundef -1)
  %37 = sext i32 %36 to i64
  %38 = mul i64 %34, %37
  %39 = uitofp i64 %38 to double
  %40 = fdiv double %32, %39
  %41 = call double @sqrt(double noundef %40) #3
  store double %41, ptr %9, align 8
  %42 = load double, ptr %9, align 8
  %43 = fadd double %42, 0x3CB0000000000000
  %44 = fdiv double 2.550000e+02, %43
  %45 = call double @log10(double noundef %44) #3
  %46 = fmul double 2.000000e+01, %45
  ret double %46

47:                                               ; preds = %26
  %48 = load ptr, ptr %7, align 8
  %49 = load i32, ptr %8, align 4
  %50 = insertvalue { ptr, i32 } poison, ptr %48, 0
  %51 = insertvalue { ptr, i32 } %50, i32 %49, 1
  resume { ptr, i32 } %51
}