; Function Attrs: mustprogress uwtable
define hidden noundef double @_ZN6cvtest4PSNRERKN2cv11_InputArrayES3_(ptr noundef nonnull align 8 dereferenceable(24) %0, ptr noundef nonnull align 8 dereferenceable(24) %1) local_unnamed_addr #6 personality ptr @__gxx_personality_v0 {
  %3 = alloca %"class.std::__cxx11::basic_string", align 8
  %4 = alloca %"class.std::allocator", align 1
  %5 = tail call noundef i32 @_ZNK2cv11_InputArray5depthEi(ptr noundef nonnull align 8 dereferenceable(24) %0, i32 noundef -1)
  %6 = icmp eq i32 %5, 0
  br i1 %6, label %15, label %7

7:                                                ; preds = %2
  call void @_ZNSaIcEC1Ev(ptr noundef nonnull align 1 dereferenceable(1) %4) #28
  invoke void @_ZNSt7__cxx1112basic_stringIcSt11char_traitsIcESaIcEEC1EPKcRKS3_(ptr noundef nonnull align 8 dereferenceable(32) %3, ptr noundef nonnull @.str.55, ptr noundef nonnull align 1 dereferenceable(1) %4)
          to label %8 unwind label %10

8:                                                ; preds = %7
  invoke void @_ZN2cv5errorEiRKNSt7__cxx1112basic_stringIcSt11char_traitsIcESaIcEEEPKcS9_i(i32 noundef -215, ptr noundef nonnull align 8 dereferenceable(32) %3, ptr noundef nonnull @__func__._ZN6cvtest4PSNRERKN2cv11_InputArrayES3_, ptr noundef nonnull @.str.31, i32 noundef 1443) #29
          to label %9 unwind label %12

9:                                                ; preds = %8
  unreachable

10:                                               ; preds = %7
  %11 = landingpad { ptr, i32 }
          cleanup
  br label %14

12:                                               ; preds = %8
  %13 = landingpad { ptr, i32 }
          cleanup
  call void @_ZNSt7__cxx1112basic_stringIcSt11char_traitsIcESaIcEED1Ev(ptr noundef nonnull align 8 dereferenceable(32) %3) #28
  br label %14

14:                                               ; preds = %12, %10
  %.pn = phi { ptr, i32 } [ %13, %12 ], [ %11, %10 ]
  call void @_ZNSaIcED1Ev(ptr noundef nonnull align 1 dereferenceable(1) %4) #28
  resume { ptr, i32 } %.pn

15:                                               ; preds = %2
  %16 = tail call noundef nonnull align 8 dereferenceable(24) ptr @_ZN2cv7noArrayEv()
  %17 = tail call noundef double @_ZN6cvtest4normERKN2cv11_InputArrayES3_iS3_(ptr noundef nonnull align 8 dereferenceable(24) %0, ptr noundef nonnull align 8 dereferenceable(24) %1, i32 noundef 5, ptr noundef nonnull align 8 dereferenceable(24) %16)
  %18 = tail call noundef i64 @_ZNK2cv11_InputArray5totalEi(ptr noundef nonnull align 8 dereferenceable(24) %0, i32 noundef -1)
  %19 = tail call noundef i32 @_ZNK2cv11_InputArray8channelsEi(ptr noundef nonnull align 8 dereferenceable(24) %0, i32 noundef -1)
  %20 = sext i32 %19 to i64
  %21 = mul i64 %18, %20
  %22 = uitofp i64 %21 to double
  %23 = fdiv double %17, %22
  %24 = tail call double @sqrt(double noundef %23) #28
  %25 = fadd double %24, 0x3CB0000000000000
  %26 = fdiv double 2.550000e+02, %25
  %27 = tail call double @log10(double noundef %26) #28
  %28 = fmul double %27, 2.000000e+01
  ret double %28
}